; ModuleID = '27/1621.c'
source_filename = "27/1621.c"
target datalayout = "e-m:e-p270:32:32-p271:32:32-p272:64:64-i64:64-f80:128-n8:16:32:64-S128"
target triple = "x86_64-pc-linux-gnu"

@.str = private unnamed_addr constant [3 x i8] c"%d\00", align 1
@.str.1 = private unnamed_addr constant [10 x i8] c"%lf%lf%lf\00", align 1
@.str.2 = private unnamed_addr constant [28 x i8] c"x1=%.5f+%.5fi;x2=%.5f%.5fi\0A\00", align 1
@.str.3 = private unnamed_addr constant [12 x i8] c"x1=x2=%.5f\0A\00", align 1
@.str.4 = private unnamed_addr constant [17 x i8] c"x1=%.5f;x2=%.5f\0A\00", align 1

; Function Attrs: noinline nounwind uwtable
define dso_local i32 @main(i32 %0, i8** %1) #0 {
  %3 = alloca i32, align 4
  %4 = alloca i32, align 4
  %5 = alloca i8**, align 8
  %6 = alloca i32, align 4
  %7 = alloca i32, align 4
  %8 = alloca double, align 8
  %9 = alloca double, align 8
  %10 = alloca double, align 8
  %11 = alloca double, align 8
  %12 = alloca double, align 8
  %13 = alloca double, align 8
  store i32 0, i32* %3, align 4
  store i32 %0, i32* %4, align 4
  store i8** %1, i8*** %5, align 8
  %14 = call i32 (i8*, ...) @__isoc99_scanf(i8* getelementptr inbounds ([3 x i8], [3 x i8]* @.str, i64 0, i64 0), i32* %6)
  store i32 0, i32* %7, align 4
  br label %15

15:                                               ; preds = %114, %2
  %16 = load i32, i32* %7, align 4
  %17 = load i32, i32* %6, align 4
  %18 = icmp slt i32 %16, %17
  br i1 %18, label %19, label %117

19:                                               ; preds = %15
  %20 = call i32 (i8*, ...) @__isoc99_scanf(i8* getelementptr inbounds ([10 x i8], [10 x i8]* @.str.1, i64 0, i64 0), double* %8, double* %9, double* %10)
  %21 = load double, double* %9, align 8
  %22 = load double, double* %9, align 8
  %23 = fmul double %21, %22
  %24 = load double, double* %8, align 8
  %25 = fmul double 4.000000e+00, %24
  %26 = load double, double* %10, align 8
  %27 = fmul double %25, %26
  %28 = fsub double %23, %27
  %29 = fcmp olt double %28, 0.000000e+00
  br i1 %29, label %30, label %71

30:                                               ; preds = %19
  %31 = load double, double* %9, align 8
  %32 = fcmp oeq double %31, 0.000000e+00
  br i1 %32, label %33, label %34

33:                                               ; preds = %30
  store double 0.000000e+00, double* %13, align 8
  br label %40

34:                                               ; preds = %30
  %35 = load double, double* %9, align 8
  %36 = fneg double %35
  %37 = load double, double* %8, align 8
  %38 = fmul double 2.000000e+00, %37
  %39 = fdiv double %36, %38
  store double %39, double* %13, align 8
  br label %40

40:                                               ; preds = %34, %33
  %41 = load double, double* %8, align 8
  %42 = fmul double 4.000000e+00, %41
  %43 = load double, double* %10, align 8
  %44 = fmul double %42, %43
  %45 = load double, double* %9, align 8
  %46 = load double, double* %9, align 8
  %47 = fmul double %45, %46
  %48 = fsub double %44, %47
  %49 = call double @sqrt(double %48) #3
  %50 = load double, double* %8, align 8
  %51 = fmul double 2.000000e+00, %50
  %52 = fdiv double %49, %51
  store double %52, double* %11, align 8
  %53 = load double, double* %8, align 8
  %54 = fmul double 4.000000e+00, %53
  %55 = load double, double* %10, align 8
  %56 = fmul double %54, %55
  %57 = load double, double* %9, align 8
  %58 = load double, double* %9, align 8
  %59 = fmul double %57, %58
  %60 = fsub double %56, %59
  %61 = call double @sqrt(double %60) #3
  %62 = fneg double %61
  %63 = load double, double* %8, align 8
  %64 = fmul double 2.000000e+00, %63
  %65 = fdiv double %62, %64
  store double %65, double* %12, align 8
  %66 = load double, double* %13, align 8
  %67 = load double, double* %11, align 8
  %68 = load double, double* %13, align 8
  %69 = load double, double* %12, align 8
  %70 = call i32 (i8*, ...) @printf(i8* getelementptr inbounds ([28 x i8], [28 x i8]* @.str.2, i64 0, i64 0), double %66, double %67, double %68, double %69)
  br label %113

71:                                               ; preds = %19
  %72 = load double, double* %9, align 8
  %73 = fneg double %72
  %74 = load double, double* %9, align 8
  %75 = load double, double* %9, align 8
  %76 = fmul double %74, %75
  %77 = load double, double* %8, align 8
  %78 = fmul double 4.000000e+00, %77
  %79 = load double, double* %10, align 8
  %80 = fmul double %78, %79
  %81 = fsub double %76, %80
  %82 = call double @sqrt(double %81) #3
  %83 = fadd double %73, %82
  %84 = load double, double* %8, align 8
  %85 = fmul double 2.000000e+00, %84
  %86 = fdiv double %83, %85
  store double %86, double* %11, align 8
  %87 = load double, double* %9, align 8
  %88 = fneg double %87
  %89 = load double, double* %9, align 8
  %90 = load double, double* %9, align 8
  %91 = fmul double %89, %90
  %92 = load double, double* %8, align 8
  %93 = fmul double 4.000000e+00, %92
  %94 = load double, double* %10, align 8
  %95 = fmul double %93, %94
  %96 = fsub double %91, %95
  %97 = call double @sqrt(double %96) #3
  %98 = fsub double %88, %97
  %99 = load double, double* %8, align 8
  %100 = fmul double 2.000000e+00, %99
  %101 = fdiv double %98, %100
  store double %101, double* %12, align 8
  %102 = load double, double* %11, align 8
  %103 = load double, double* %12, align 8
  %104 = fcmp oeq double %102, %103
  br i1 %104, label %105, label %108

105:                                              ; preds = %71
  %106 = load double, double* %11, align 8
  %107 = call i32 (i8*, ...) @printf(i8* getelementptr inbounds ([12 x i8], [12 x i8]* @.str.3, i64 0, i64 0), double %106)
  br label %112

108:                                              ; preds = %71
  %109 = load double, double* %11, align 8
  %110 = load double, double* %12, align 8
  %111 = call i32 (i8*, ...) @printf(i8* getelementptr inbounds ([17 x i8], [17 x i8]* @.str.4, i64 0, i64 0), double %109, double %110)
  br label %112

112:                                              ; preds = %108, %105
  br label %113

113:                                              ; preds = %112, %40
  br label %114

114:                                              ; preds = %113
  %115 = load i32, i32* %7, align 4
  %116 = add nsw i32 %115, 1
  store i32 %116, i32* %7, align 4
  br label %15

117:                                              ; preds = %15
  ret i32 0
}

declare dso_local i32 @__isoc99_scanf(i8*, ...) #1

; Function Attrs: nounwind
declare dso_local double @sqrt(double) #2

declare dso_local i32 @printf(i8*, ...) #1


!llvm.module.flags = !{!0}
!llvm.ident = !{!1}

!0 = !{i32 1, !"wchar_size", i32 4}
!1 = !{!"clang version 10.0.0-4ubuntu1 "}
