; ModuleID = 'source-C-CXX/26/1621.c'
source_filename = "source-C-CXX/26/1621.c"
target datalayout = "e-m:e-p270:32:32-p271:32:32-p272:64:64-i64:64-f80:128-n8:16:32:64-S128"
target triple = "x86_64-pc-linux-gnu"

@.str = private unnamed_addr constant [3 x i8] c"%d\00", align 1
@.str.1 = private unnamed_addr constant [10 x i8] c"%lf%lf%lf\00", align 1
@.str.2 = private unnamed_addr constant [28 x i8] c"x1=%.5f+%.5fi;x2=%.5f%.5fi\0A\00", align 1
@.str.3 = private unnamed_addr constant [12 x i8] c"x1=x2=%.5f\0A\00", align 1
@.str.4 = private unnamed_addr constant [17 x i8] c"x1=%.5f;x2=%.5f\0A\00", align 1

; Function Attrs: nofree nounwind sspstrong uwtable
define dso_local i32 @main(i32 %0, i8** nocapture readnone %1) local_unnamed_addr #0 {
  %3 = alloca i32, align 4
  %4 = alloca double, align 8
  %5 = alloca double, align 8
  %6 = alloca double, align 8
  %7 = bitcast i32* %3 to i8*
  call void @llvm.lifetime.start.p0i8(i64 4, i8* nonnull %7) #4
  %8 = call i32 (i8*, ...) @__isoc99_scanf(i8* getelementptr inbounds ([3 x i8], [3 x i8]* @.str, i64 0, i64 0), i32* nonnull %3)
  %9 = bitcast double* %4 to i8*
  call void @llvm.lifetime.start.p0i8(i64 8, i8* nonnull %9) #4
  %10 = bitcast double* %5 to i8*
  call void @llvm.lifetime.start.p0i8(i64 8, i8* nonnull %10) #4
  %11 = bitcast double* %6 to i8*
  call void @llvm.lifetime.start.p0i8(i64 8, i8* nonnull %11) #4
  %12 = load i32, i32* %3, align 4, !tbaa !5
  %13 = icmp sgt i32 %12, 0
  br i1 %13, label %14, label %82

14:                                               ; preds = %2, %78
  %15 = phi i32 [ %79, %78 ], [ 0, %2 ]
  %16 = call i32 (i8*, ...) @__isoc99_scanf(i8* getelementptr inbounds ([10 x i8], [10 x i8]* @.str.1, i64 0, i64 0), double* nonnull %4, double* nonnull %5, double* nonnull %6)
  %17 = load double, double* %5, align 8, !tbaa !9
  %18 = fmul double %17, %17
  %19 = load double, double* %4, align 8, !tbaa !9
  %20 = fmul double %19, 4.000000e+00
  %21 = load double, double* %6, align 8, !tbaa !9
  %22 = fmul double %20, %21
  %23 = fsub double %18, %22
  %24 = fcmp olt double %23, 0.000000e+00
  br i1 %24, label %25, label %50

25:                                               ; preds = %14
  %26 = fcmp oeq double %17, 0.000000e+00
  br i1 %26, label %31, label %27

27:                                               ; preds = %25
  %28 = fneg double %17
  %29 = fmul double %19, 2.000000e+00
  %30 = fdiv double %28, %29
  br label %31

31:                                               ; preds = %25, %27
  %32 = phi double [ %30, %27 ], [ 0.000000e+00, %25 ]
  %33 = fsub double %22, %18
  %34 = call double @sqrt(double %33) #4
  %35 = load double, double* %4, align 8, !tbaa !9
  %36 = fmul double %35, 2.000000e+00
  %37 = fdiv double %34, %36
  %38 = fmul double %35, 4.000000e+00
  %39 = load double, double* %6, align 8, !tbaa !9
  %40 = fmul double %38, %39
  %41 = load double, double* %5, align 8, !tbaa !9
  %42 = fmul double %41, %41
  %43 = fsub double %40, %42
  %44 = call double @sqrt(double %43) #4
  %45 = fneg double %44
  %46 = load double, double* %4, align 8, !tbaa !9
  %47 = fmul double %46, 2.000000e+00
  %48 = fdiv double %45, %47
  %49 = call i32 (i8*, ...) @printf(i8* nonnull dereferenceable(1) getelementptr inbounds ([28 x i8], [28 x i8]* @.str.2, i64 0, i64 0), double %32, double %37, double %32, double %48)
  br label %78

50:                                               ; preds = %14
  %51 = call double @sqrt(double %23) #4
  %52 = load double, double* %4, align 8, !tbaa !9
  %53 = load double, double* %5, align 8, !tbaa !9
  %54 = fneg double %53
  %55 = fmul double %53, %53
  %56 = fmul double %52, 4.000000e+00
  %57 = load double, double* %6, align 8, !tbaa !9
  %58 = fmul double %56, %57
  %59 = fsub double %55, %58
  %60 = call double @sqrt(double %59) #4
  %61 = insertelement <2 x double> poison, double %51, i32 0
  %62 = insertelement <2 x double> %61, double %54, i32 1
  %63 = insertelement <2 x double> poison, double %17, i32 0
  %64 = insertelement <2 x double> %63, double %60, i32 1
  %65 = fsub <2 x double> %62, %64
  %66 = load double, double* %4, align 8, !tbaa !9
  %67 = insertelement <2 x double> poison, double %52, i32 0
  %68 = insertelement <2 x double> %67, double %66, i32 1
  %69 = fmul <2 x double> %68, <double 2.000000e+00, double 2.000000e+00>
  %70 = fdiv <2 x double> %65, %69
  %71 = extractelement <2 x double> %70, i32 0
  %72 = extractelement <2 x double> %70, i32 1
  %73 = fcmp oeq double %71, %72
  br i1 %73, label %74, label %76

74:                                               ; preds = %50
  %75 = call i32 (i8*, ...) @printf(i8* nonnull dereferenceable(1) getelementptr inbounds ([12 x i8], [12 x i8]* @.str.3, i64 0, i64 0), double %71)
  br label %78

76:                                               ; preds = %50
  %77 = call i32 (i8*, ...) @printf(i8* nonnull dereferenceable(1) getelementptr inbounds ([17 x i8], [17 x i8]* @.str.4, i64 0, i64 0), double %71, double %72)
  br label %78

78:                                               ; preds = %31, %76, %74
  %79 = add nuw nsw i32 %15, 1
  %80 = load i32, i32* %3, align 4, !tbaa !5
  %81 = icmp slt i32 %79, %80
  br i1 %81, label %14, label %82, !llvm.loop !11

82:                                               ; preds = %78, %2
  call void @llvm.lifetime.end.p0i8(i64 8, i8* nonnull %11) #4
  call void @llvm.lifetime.end.p0i8(i64 8, i8* nonnull %10) #4
  call void @llvm.lifetime.end.p0i8(i64 8, i8* nonnull %9) #4
  call void @llvm.lifetime.end.p0i8(i64 4, i8* nonnull %7) #4
  ret i32 0
}

; Function Attrs: argmemonly mustprogress nofree nosync nounwind willreturn
declare void @llvm.lifetime.start.p0i8(i64 immarg, i8* nocapture) #1

; Function Attrs: nofree nounwind
declare noundef i32 @__isoc99_scanf(i8* nocapture noundef readonly, ...) local_unnamed_addr #2

; Function Attrs: mustprogress nofree nounwind willreturn
declare double @sqrt(double) local_unnamed_addr #3

; Function Attrs: nofree nounwind
declare noundef i32 @printf(i8* nocapture noundef readonly, ...) local_unnamed_addr #2

; Function Attrs: argmemonly mustprogress nofree nosync nounwind willreturn
declare void @llvm.lifetime.end.p0i8(i64 immarg, i8* nocapture) #1


!llvm.module.flags = !{!0, !1, !2, !3}
!llvm.ident = !{!4}

!0 = !{i32 1, !"wchar_size", i32 4}
!1 = !{i32 7, !"PIC Level", i32 2}
!2 = !{i32 7, !"PIE Level", i32 2}
!3 = !{i32 7, !"uwtable", i32 1}
!4 = !{!"clang version 13.0.0"}
!5 = !{!6, !6, i64 0}
!6 = !{!"int", !7, i64 0}
!7 = !{!"omnipotent char", !8, i64 0}
!8 = !{!"Simple C/C++ TBAA"}
!9 = !{!10, !10, i64 0}
!10 = !{!"double", !7, i64 0}
!11 = distinct !{!11, !12}
!12 = !{!"llvm.loop.mustprogress"}
